target datalayout = "e-m:e-p270:32:32-p271:32:32-p272:64:64-i64:64-i128:128-f80:128-n8:16:32:64-S128"
target triple = "x86_64-pc-linux-gnu"

%struct.Qureg = type { i32, i32, i32, i64, i64, i32, i32, %struct.ComplexArray, %struct.ComplexArray, %struct.ComplexArray, ptr, ptr, ptr, ptr, ptr, ptr }
%struct.ComplexArray = type { ptr, ptr }

@__func__.applyNamedPhaseFuncOverrides = private unnamed_addr constant [29 x i8] c"applyNamedPhaseFuncOverrides\00", align 1

; Function Attrs: nounwind uwtable
define void @applyNamedPhaseFuncOverrides(ptr noundef byval(%struct.Qureg) align 8 %0, ptr noundef %1, ptr noundef %2, i32 noundef %3, i32 noundef %4, i32 noundef %5, ptr noundef %6, ptr noundef %7, i32 noundef %8) #0 {
  %10 = alloca ptr, align 8
  %11 = alloca ptr, align 8
  %12 = alloca i32, align 4
  %13 = alloca i32, align 4
  %14 = alloca i32, align 4
  %15 = alloca ptr, align 8
  %16 = alloca ptr, align 8
  %17 = alloca i32, align 4
  %18 = alloca i32, align 4
  store ptr %1, ptr %10, align 8, !tbaa !27
  store ptr %2, ptr %11, align 8, !tbaa !27
  store i32 %3, ptr %12, align 4, !tbaa !4
  store i32 %4, ptr %13, align 4, !tbaa !4
  store i32 %5, ptr %14, align 4, !tbaa !4
  store ptr %6, ptr %15, align 8, !tbaa !30
  store ptr %7, ptr %16, align 8, !tbaa !23
  store i32 %8, ptr %17, align 4, !tbaa !4
  %19 = load ptr, ptr %10, align 8, !tbaa !27
  %20 = load ptr, ptr %11, align 8, !tbaa !27
  %21 = load i32, ptr %12, align 4, !tbaa !4
  call void @validateQubitSubregs(ptr noundef byval(%struct.Qureg) align 8 %0, ptr noundef %19, ptr noundef %20, i32 noundef %21, ptr noundef @__func__.applyNamedPhaseFuncOverrides)
  %22 = load ptr, ptr %11, align 8, !tbaa !27
  %23 = load i32, ptr %12, align 4, !tbaa !4
  %24 = load i32, ptr %13, align 4, !tbaa !4
  call void @validateMultiRegBitEncoding(ptr noundef %22, i32 noundef %23, i32 noundef %24, ptr noundef @__func__.applyNamedPhaseFuncOverrides)
  %25 = load i32, ptr %14, align 4, !tbaa !4
  %26 = load i32, ptr %12, align 4, !tbaa !4
  call void @validatePhaseFuncName(i32 noundef %25, i32 noundef %26, i32 noundef 0, ptr noundef @__func__.applyNamedPhaseFuncOverrides)
  %27 = load ptr, ptr %11, align 8, !tbaa !27
  %28 = load i32, ptr %12, align 4, !tbaa !4
  %29 = load i32, ptr %13, align 4, !tbaa !4
  %30 = load ptr, ptr %15, align 8, !tbaa !30
  %31 = load i32, ptr %17, align 4, !tbaa !4
  call void @validateMultiVarPhaseFuncOverrides(ptr noundef %27, i32 noundef %28, i32 noundef %29, ptr noundef %30, i32 noundef %31, ptr noundef @__func__.applyNamedPhaseFuncOverrides)
  call void @llvm.lifetime.start.p0(i64 4, ptr %18) #7
  store i32 0, ptr %18, align 4, !tbaa !4
  %32 = load ptr, ptr %10, align 8, !tbaa !27
  %33 = load ptr, ptr %11, align 8, !tbaa !27
  %34 = load i32, ptr %12, align 4, !tbaa !4
  %35 = load i32, ptr %13, align 4, !tbaa !4
  %36 = load i32, ptr %14, align 4, !tbaa !4
  %37 = load ptr, ptr %15, align 8, !tbaa !30
  %38 = load ptr, ptr %16, align 8, !tbaa !23
  %39 = load i32, ptr %17, align 4, !tbaa !4
  %40 = load i32, ptr %18, align 4, !tbaa !4
  call void @statevec_applyParamNamedPhaseFuncOverrides(ptr noundef byval(%struct.Qureg) align 8 %0, ptr noundef %32, ptr noundef %33, i32 noundef %34, i32 noundef %35, i32 noundef %36, ptr noundef null, i32 noundef 0, ptr noundef %37, ptr noundef %38, i32 noundef %39, i32 noundef %40)
  %41 = getelementptr inbounds nuw %struct.Qureg, ptr %0, i32 0, i32 0
  %42 = load i32, ptr %41, align 8, !tbaa !13
  %43 = icmp ne i32 %42, 0
  br i1 %43, label %44, label %65

44:                                               ; preds = %9
  store i32 1, ptr %18, align 4, !tbaa !4
  %45 = load ptr, ptr %10, align 8, !tbaa !27
  %46 = load ptr, ptr %11, align 8, !tbaa !27
  %47 = load i32, ptr %12, align 4, !tbaa !4
  %48 = getelementptr inbounds nuw %struct.Qureg, ptr %0, i32 0, i32 1
  %49 = load i32, ptr %48, align 4, !tbaa !18
  call void @shiftSubregIndices(ptr noundef %45, ptr noundef %46, i32 noundef %47, i32 noundef %49)
  %50 = load ptr, ptr %10, align 8, !tbaa !27
  %51 = load ptr, ptr %11, align 8, !tbaa !27
  %52 = load i32, ptr %12, align 4, !tbaa !4
  %53 = load i32, ptr %13, align 4, !tbaa !4
  %54 = load i32, ptr %14, align 4, !tbaa !4
  %55 = load ptr, ptr %15, align 8, !tbaa !30
  %56 = load ptr, ptr %16, align 8, !tbaa !23
  %57 = load i32, ptr %17, align 4, !tbaa !4
  %58 = load i32, ptr %18, align 4, !tbaa !4
  call void @statevec_applyParamNamedPhaseFuncOverrides(ptr noundef byval(%struct.Qureg) align 8 %0, ptr noundef %50, ptr noundef %51, i32 noundef %52, i32 noundef %53, i32 noundef %54, ptr noundef null, i32 noundef 0, ptr noundef %55, ptr noundef %56, i32 noundef %57, i32 noundef %58)
  %59 = load ptr, ptr %10, align 8, !tbaa !27
  %60 = load ptr, ptr %11, align 8, !tbaa !27
  %61 = load i32, ptr %12, align 4, !tbaa !4
  %62 = getelementptr inbounds nuw %struct.Qureg, ptr %0, i32 0, i32 1
  %63 = load i32, ptr %62, align 4, !tbaa !18
  %64 = sub nsw i32 0, %63
  call void @shiftSubregIndices(ptr noundef %59, ptr noundef %60, i32 noundef %61, i32 noundef %64)
  br label %65

65:                                               ; preds = %44, %9
  %66 = load ptr, ptr %10, align 8, !tbaa !27
  %67 = load ptr, ptr %11, align 8, !tbaa !27
  %68 = load i32, ptr %12, align 4, !tbaa !4
  %69 = load i32, ptr %13, align 4, !tbaa !4
  %70 = load i32, ptr %14, align 4, !tbaa !4
  %71 = load ptr, ptr %15, align 8, !tbaa !30
  %72 = load ptr, ptr %16, align 8, !tbaa !23
  %73 = load i32, ptr %17, align 4, !tbaa !4
  call void @qasm_recordNamedPhaseFunc(ptr noundef byval(%struct.Qureg) align 8 %0, ptr noundef %66, ptr noundef %67, i32 noundef %68, i32 noundef %69, i32 noundef %70, ptr noundef null, i32 noundef 0, ptr noundef %71, ptr noundef %72, i32 noundef %73)
  call void @llvm.lifetime.end.p0(i64 4, ptr %18) #7
  ret void
}