; Function Attrs: nounwind uwtable
define void @applyNamedPhaseFuncOverrides(ptr noundef readonly byval(%struct.Qureg) align 8 captures(none) %0, ptr noundef %1, ptr noundef %2, i32 noundef %3, i32 noundef %4, i32 noundef %5, ptr noundef %6, ptr noundef %7, i32 noundef %8) local_unnamed_addr #0 {
  tail call void @validateQubitSubregs(ptr noundef nonnull byval(%struct.Qureg) align 8 %0, ptr noundef %1, ptr noundef %2, i32 noundef %3, ptr noundef nonnull @__func__.applyNamedPhaseFuncOverrides) #17
  tail call void @validateMultiRegBitEncoding(ptr noundef %2, i32 noundef %3, i32 noundef %4, ptr noundef nonnull @__func__.applyNamedPhaseFuncOverrides) #17
  tail call void @validatePhaseFuncName(i32 noundef %5, i32 noundef %3, i32 noundef 0, ptr noundef nonnull @__func__.applyNamedPhaseFuncOverrides) #17
  tail call void @validateMultiVarPhaseFuncOverrides(ptr noundef %2, i32 noundef %3, i32 noundef %4, ptr noundef %6, i32 noundef %8, ptr noundef nonnull @__func__.applyNamedPhaseFuncOverrides) #17
  tail call void @statevec_applyParamNamedPhaseFuncOverrides(ptr noundef nonnull byval(%struct.Qureg) align 8 %0, ptr noundef %1, ptr noundef %2, i32 noundef %3, i32 noundef %4, i32 noundef %5, ptr noundef null, i32 noundef 0, ptr noundef %6, ptr noundef %7, i32 noundef %8, i32 noundef 0) #17
  %10 = load i32, ptr %0, align 8, !tbaa !12
  %.not = icmp eq i32 %10, 0
  br i1 %.not, label %15, label %11

11:                                               ; preds = %9
  %12 = getelementptr inbounds nuw i8, ptr %0, i64 4
  %13 = load i32, ptr %12, align 4, !tbaa !17
  tail call void @shiftSubregIndices(ptr noundef %1, ptr noundef %2, i32 noundef %3, i32 noundef %13) #17
  tail call void @statevec_applyParamNamedPhaseFuncOverrides(ptr noundef nonnull byval(%struct.Qureg) align 8 %0, ptr noundef %1, ptr noundef %2, i32 noundef %3, i32 noundef %4, i32 noundef %5, ptr noundef null, i32 noundef 0, ptr noundef %6, ptr noundef %7, i32 noundef %8, i32 noundef 1) #17
  %14 = sub nsw i32 0, %13
  tail call void @shiftSubregIndices(ptr noundef %1, ptr noundef %2, i32 noundef %3, i32 noundef %14) #17
  br label %15

15:                                               ; preds = %11, %9
  tail call void @qasm_recordNamedPhaseFunc(ptr noundef nonnull byval(%struct.Qureg) align 8 %0, ptr noundef %1, ptr noundef %2, i32 noundef %3, i32 noundef %4, i32 noundef %5, ptr noundef null, i32 noundef 0, ptr noundef %6, ptr noundef %7, i32 noundef %8) #17
  ret void
}